; ModuleID = 'bench/openmpi/original/iof_hnp_component.ll'
source_filename = "bench/openmpi/original/iof_hnp_component.ll"
target datalayout = "e-m:e-p270:32:32-p271:32:32-p272:64:64-i64:64-i128:128-f80:128-n8:16:32:64-S128"
target triple = "x86_64-pc-linux-gnu"

%struct.prte_mca_iof_hnp_component_t = type { %struct.pmix_mca_base_component_2_1_0_t, %struct.pmix_list_t, %struct.event }
%struct.pmix_mca_base_component_2_1_0_t = type { i32, i32, i32, [16 x i8], i32, i32, i32, [32 x i8], i32, i32, i32, [64 x i8], i32, i32, i32, ptr, ptr, ptr, ptr, [32 x i8] }
%struct.pmix_list_t = type { %struct.pmix_object_t, %struct.pmix_list_item_t, i64 }
%struct.pmix_object_t = type { %union.pthread_mutex_t, ptr, i32, %struct.pmix_tma }
%union.pthread_mutex_t = type { %struct.__pthread_mutex_s }
%struct.__pthread_mutex_s = type { i32, i32, i32, i32, i32, i16, i16, %struct.__pthread_internal_list }
%struct.__pthread_internal_list = type { ptr, ptr }
%struct.pmix_tma = type { ptr, ptr, ptr, ptr, ptr, ptr, ptr, ptr }
%struct.pmix_list_item_t = type { %struct.pmix_object_t, ptr, ptr, i32 }
%struct.event = type { %struct.event_callback, %union.anon.0, i32, ptr, %union.anon.2, i16, i16, %struct.timeval }
%struct.event_callback = type { %struct.anon, i16, i8, i8, %union.anon, ptr }
%struct.anon = type { ptr, ptr }
%union.anon = type { ptr }
%union.anon.0 = type { %struct.anon.1 }
%struct.anon.1 = type { ptr, ptr }
%union.anon.2 = type { %struct.anon.3 }
%struct.anon.3 = type { %struct.anon.4, %struct.timeval }
%struct.anon.4 = type { ptr, ptr }
%struct.timeval = type { i64, i64 }
%struct.prte_process_info_t = type { %struct.pmix_proc, %struct.pmix_proc, ptr, %struct.pmix_proc, i32, i32, i32, ptr, ptr, i32, i8, ptr, i16, ptr, ptr, i8, ptr, i8 }
%struct.pmix_proc = type { [256 x i8], i32 }
%struct.prte_iof_base_module_2_0_0_t = type { ptr, ptr, ptr, ptr, ptr, ptr, ptr }

@.str = private unnamed_addr constant [37 x i8] c"PRTE hnp iof MCA component version 0\00", align 1
@prte_mca_iof_hnp_component_version_string = local_unnamed_addr global ptr @.str, align 8
@prte_mca_iof_hnp_component = local_unnamed_addr global %struct.prte_mca_iof_hnp_component_t { %struct.pmix_mca_base_component_2_1_0_t { i32 2, i32 1, i32 0, [16 x i8] c"prte\00\00\00\00\00\00\00\00\00\00\00\00", i32 4, i32 0, i32 0, [32 x i8] c"iof\00\00\00\00\00\00\00\00\00\00\00\00\00\00\00\00\00\00\00\00\00\00\00\00\00\00\00\00\00", i32 2, i32 0, i32 0, [64 x i8] c"hnp\00\00\00\00\00\00\00\00\00\00\00\00\00\00\00\00\00\00\00\00\00\00\00\00\00\00\00\00\00\00\00\00\00\00\00\00\00\00\00\00\00\00\00\00\00\00\00\00\00\00\00\00\00\00\00\00\00\00\00\00\00", i32 4, i32 0, i32 0, ptr @prte_iof_hnp_open, ptr @prte_iof_hnp_close, ptr @prte_iof_hnp_query, ptr null, [32 x i8] zeroinitializer }, %struct.pmix_list_t zeroinitializer, %struct.event zeroinitializer }, align 8
@prte_process_info = external local_unnamed_addr global %struct.prte_process_info_t, align 8
@prte_iof_hnp_module = external global %struct.prte_iof_base_module_2_0_0_t, align 8

; Function Attrs: mustprogress nofree norecurse nosync nounwind willreturn memory(none) uwtable
define internal noundef i32 @prte_iof_hnp_open() #0 {
  ret i32 0
}

; Function Attrs: mustprogress nofree norecurse nosync nounwind willreturn memory(none) uwtable
define internal noundef i32 @prte_iof_hnp_close() #0 {
  ret i32 0
}

; Function Attrs: mustprogress nofree norecurse nosync nounwind willreturn memory(read, argmem: write, inaccessiblemem: none) uwtable
define internal range(i32 -1, 1) i32 @prte_iof_hnp_query(ptr noundef writeonly captures(none) initializes((0, 8)) %0, ptr noundef writeonly captures(none) initializes((0, 4)) %1) #1 {
  %3 = load i8, ptr getelementptr inbounds nuw (i8, ptr @prte_process_info, i64 820), align 4, !tbaa !3
  %4 = and i8 %3, 4
  %.not = icmp eq i8 %4, 0
  %storemerge4 = select i1 %.not, i32 -1, i32 100
  %storemerge = select i1 %.not, ptr null, ptr @prte_iof_hnp_module
  %.0 = sext i1 %.not to i32
  store i32 %storemerge4, ptr %1, align 4, !tbaa !14
  store ptr %storemerge, ptr %0, align 8, !tbaa !15
  ret i32 %.0
}


!llvm.module.flags = !{!0, !1, !2}

!0 = !{i32 1, !"wchar_size", i32 4}
!1 = !{i32 8, !"PIC Level", i32 2}
!2 = !{i32 7, !"uwtable", i32 2}
!3 = !{!4, !6, i64 820}
!4 = !{!"prte_process_info_t", !5, i64 0, !5, i64 260, !9, i64 520, !5, i64 528, !8, i64 788, !8, i64 792, !8, i64 796, !9, i64 800, !11, i64 808, !8, i64 816, !6, i64 820, !9, i64 824, !12, i64 832, !9, i64 840, !9, i64 848, !13, i64 856, !9, i64 864, !13, i64 872}
!5 = !{!"pmix_proc", !6, i64 0, !8, i64 256}
!6 = !{!"omnipotent char", !7, i64 0}
!7 = !{!"Simple C/C++ TBAA"}
!8 = !{!"int", !6, i64 0}
!9 = !{!"p1 omnipotent char", !10, i64 0}
!10 = !{!"any pointer", !6, i64 0}
!11 = !{!"p2 omnipotent char", !10, i64 0}
!12 = !{!"short", !6, i64 0}
!13 = !{!"_Bool", !6, i64 0}
!14 = !{!8, !8, i64 0}
!15 = !{!16, !16, i64 0}
!16 = !{!"p1 _ZTS28pmix_mca_base_module_2_0_0_t", !10, i64 0}
